target datalayout = "e-m:e-p270:32:32-p271:32:32-p272:64:64-i64:64-i128:128-f80:128-n8:16:32:64-S128"
target triple = "x86_64-pc-linux-gnu"

@.str.396 = private unnamed_addr constant [27 x i8] c"../openssl/apps/s_client.c\00", align 1

; Function Attrs: nounwind uwtable
define internal void @freeandcopy(ptr noundef %0, ptr noundef %1) #0 {
  %3 = alloca ptr, align 8
  %4 = alloca ptr, align 8
  store ptr %0, ptr %3, align 8, !tbaa !8
  store ptr %1, ptr %4, align 8, !tbaa !29
  %5 = load ptr, ptr %3, align 8, !tbaa !8
  %6 = load ptr, ptr %5, align 8, !tbaa !29
  call void @CRYPTO_free(ptr noundef %6, ptr noundef @.str.396, i32 noundef 806)
  %7 = load ptr, ptr %3, align 8, !tbaa !8
  store ptr null, ptr %7, align 8, !tbaa !29
  %8 = load ptr, ptr %4, align 8, !tbaa !29
  %9 = icmp ne ptr %8, null
  br i1 %9, label %10, label %14

10:                                               ; preds = %2
  %11 = load ptr, ptr %4, align 8, !tbaa !29
  %12 = call noalias ptr @CRYPTO_strdup(ptr noundef %11, ptr noundef @.str.396, i32 noundef 809)
  %13 = load ptr, ptr %3, align 8, !tbaa !8
  store ptr %12, ptr %13, align 8, !tbaa !29
  br label %14

14:                                               ; preds = %10, %2
  ret void
}