; Function Attrs: nounwind uwtable
define internal fastcc void @freeandcopy(ptr noundef nonnull captures(none) %0, ptr noundef %1) unnamed_addr #0 {
  %3 = load ptr, ptr %0, align 8, !tbaa !11
  tail call void @CRYPTO_free(ptr noundef %3, ptr noundef nonnull @.str.396, i32 noundef 806) #15
  store ptr null, ptr %0, align 8, !tbaa !11
  %.not = icmp eq ptr %1, null
  br i1 %.not, label %6, label %4

4:                                                ; preds = %2
  %5 = tail call noalias ptr @CRYPTO_strdup(ptr noundef nonnull %1, ptr noundef nonnull @.str.396, i32 noundef 809) #15
  store ptr %5, ptr %0, align 8, !tbaa !11
  br label %6

6:                                                ; preds = %4, %2
  ret void
}